(dp0
S'METTS MARK'
p1
(dp2
S'salary'
p3
F365788.0
sS'bonus'
p4
F600000.0
sS'bonus_stock'
p5
F0.0
sS'stock_salary'
p6
F0.0
sS'from_ratio'
p7
F0.034482758620689655
sS'exercised_stock_options'
p8
F0.0
sS'bonus_salary'
p9
F219472800000.0
sS'total_stock_value'
p10
F585062.0
sS'poi'
p11
I00
sS'from_poi_to_this_person'
p12
F38.0
ssS'BAXTER JOHN C'
p13
(dp14
g3
F267102.0
sg4
F1200000.0
sg5
F8016652800000.0
sg6
F1784386663488.0
sg7
F0.0
sg8
F6680544.0
sg9
F320522400000.0
sg10
F10623258.0
sg11
I00
sg12
F0.0
ssS'ELLIOTT STEVEN'
p15
(dp16
g3
F170941.0
sg4
F350000.0
sg5
F1711620400000.0
sg6
F835960293704.0
sg7
F0.0
sg8
F4890344.0
sg9
F59829350000.0
sg10
F6678735.0
sg11
I00
sg12
F0.0
ssS'CORDES WILLIAM R'
p17
(dp18
g3
F0.0
sg4
F0.0
sg5
F0.0
sg6
F0.0
sg7
F0.0
sg8
F651850.0
sg9
F0.0
sg10
F1038185.0
sg11
I00
sg12
F10.0
ssS'HANNON KEVIN P'
p19
(dp20
g3
F243293.0
sg4
F1500000.0
sg5
F8307001500000.0
sg6
F1347356877293.0
sg7
F0.65625
sg8
F5538001.0
sg9
F364939500000.0
sg10
F6391065.0
sg11
I01
sg12
F32.0
ssS'MORDAUNT KRISTINA M'
p21
(dp22
g3
F267093.0
sg4
F325000.0
sg5
F0.0
sg6
F0.0
sg7
F0.0
sg8
F0.0
sg9
F86805225000.0
sg10
F208510.0
sg11
I00
sg12
F0.0
ssS'MEYER ROCKFORD G'
p23
(dp24
g3
F0.0
sg4
F0.0
sg5
F0.0
sg6
F0.0
sg7
F0.0
sg8
F493489.0
sg9
F0.0
sg10
F955873.0
sg11
I00
sg12
F0.0
ssS'MCMAHON JEFFREY'
p25
(dp26
g3
F370448.0
sg4
F2600000.0
sg5
F2870540400000.0
sg6
F408994596192.0
sg7
F0.5416666666666666
sg8
F1104054.0
sg9
F963164800000.0
sg10
F1662855.0
sg11
I00
sg12
F58.0
ssS'HORTON STANLEY C'
p27
(dp28
g3
F0.0
sg4
F0.0
sg5
F0.0
sg6
F0.0
sg7
F0.013979496738117428
sg8
F5210569.0
sg9
F0.0
sg10
F7256648.0
sg11
I00
sg12
F44.0
ssS'PIPER GREGORY F'
p29
(dp30
g3
F197091.0
sg4
F400000.0
sg5
F352116000000.0
sg6
F173497236390.0
sg7
F0.21621621621621623
sg8
F880290.0
sg9
F78836400000.0
sg10
F880290.0
sg11
I00
sg12
F61.0
ssS'HUMPHREY GENE E'
p31
(dp32
g3
F130724.0
sg4
F0.0
sg5
F0.0
sg6
F298412564032.0
sg7
F1.0
sg8
F2282768.0
sg9
F0.0
sg10
F2282768.0
sg11
I00
sg12
F10.0
ssS'UMANOFF ADAM S'
p33
(dp34
g3
F288589.0
sg4
F788750.0
sg5
F0.0
sg6
F0.0
sg7
F0.0
sg8
F0.0
sg9
F227624573750.0
sg10
F0.0
sg11
I00
sg12
F12.0
ssS'BLACHMAN JEREMY M'
p35
(dp36
g3
F248546.0
sg4
F850000.0
sg5
F650516050000.0
sg6
F190215484898.0
sg7
F0.14285714285714285
sg8
F765313.0
sg9
F211264100000.0
sg10
F954354.0
sg11
I00
sg12
F25.0
ssS'SUNDE MARTIN'
p37
(dp38
g3
F257486.0
sg4
F700000.0
sg5
F0.0
sg6
F0.0
sg7
F0.34210526315789475
sg8
F0.0
sg9
F180240200000.0
sg10
F698920.0
sg11
I00
sg12
F37.0
ssS'GIBBS DANA R'
p39
(dp40
g3
F0.0
sg4
F0.0
sg5
F0.0
sg6
F0.0
sg7
F0.0
sg8
F2218275.0
sg9
F0.0
sg10
F2218275.0
sg11
I00
sg12
F0.0
ssS'LOWRY CHARLES P'
p41
(dp42
g3
F0.0
sg4
F0.0
sg5
F0.0
sg6
F0.0
sg7
F0.0
sg8
F372205.0
sg9
F0.0
sg10
F372205.0
sg11
I00
sg12
F0.0
ssS'COLWELL WESLEY'
p43
(dp44
g3
F288542.0
sg4
F1200000.0
sg5
F0.0
sg6
F0.0
sg7
F0.275
sg8
F0.0
sg9
F346250400000.0
sg10
F698242.0
sg11
I01
sg12
F240.0
ssS'MULLER MARK S'
p45
(dp46
g3
F251654.0
sg4
F1100000.0
sg5
F1161952000000.0
sg6
F265827153280.0
sg7
F0.0
sg8
F1056320.0
sg9
F276819400000.0
sg10
F1416848.0
sg11
I00
sg12
F12.0
ssS'JACKSON CHARLENE R'
p47
(dp48
g3
F288558.0
sg4
F250000.0
sg5
F46265750000.0
sg6
F53401409154.0
sg7
F0.3392857142857143
sg8
F185063.0
sg9
F72139500000.0
sg10
F725735.0
sg11
I00
sg12
F25.0
ssS'WESTFAHL RICHARD K'
p49
(dp50
g3
F63744.0
sg4
F0.0
sg5
F0.0
sg6
F0.0
sg7
F0.0
sg8
F0.0
sg9
F0.0
sg10
F384930.0
sg11
I00
sg12
F0.0
ssS'WALTERS GARETH W'
p51
(dp52
g3
F0.0
sg4
F0.0
sg5
F0.0
sg6
F0.0
sg7
F0.0
sg8
F1030329.0
sg9
F0.0
sg10
F1030329.0
sg11
I00
sg12
F0.0
ssS'WALLS JR ROBERT H'
p53
(dp54
g3
F357091.0
sg4
F850000.0
sg5
F3694562400000.0
sg6
F1552111743504.0
sg7
F0.0
sg8
F4346544.0
sg9
F303527350000.0
sg10
F5898997.0
sg11
I00
sg12
F17.0
ssS'KITCHEN LOUISE'
p55
(dp56
g3
F271442.0
sg4
F3100000.0
sg5
F251230200000.0
sg6
F21998202564.0
sg7
F0.11226851851851852
sg8
F81042.0
sg9
F841470200000.0
sg10
F547143.0
sg11
I00
sg12
F251.0
ssS'CHAN RONNIE'
p57
(dp58
g3
F0.0
sg4
F0.0
sg5
F0.0
sg6
F0.0
sg7
F0.0
sg8
F0.0
sg9
F0.0
sg10
F0.0
sg11
I00
sg12
F0.0
ssS'BELFER ROBERT'
p59
(dp60
g3
F0.0
sg4
F0.0
sg5
F0.0
sg6
F0.0
sg7
F0.0
sg8
F3285.0
sg9
F0.0
sg10
F-44093.0
sg11
I00
sg12
F0.0
ssS'SHANKMAN JEFFREY A'
p61
(dp62
g3
F304110.0
sg4
F2000000.0
sg5
F2883796000000.0
sg6
F438495600780.0
sg7
F0.030958597538232
sg8
F1441898.0
sg9
F608220000000.0
sg10
F2072035.0
sg11
I00
sg12
F94.0
ssS'WODRASKA JOHN'
p63
(dp64
g3
F0.0
sg4
F0.0
sg5
F0.0
sg6
F0.0
sg7
F0.0
sg8
F0.0
sg9
F0.0
sg10
F0.0
sg11
I00
sg12
F0.0
ssS'BERGSIEKER RICHARD P'
p65
(dp66
g3
F187922.0
sg4
F250000.0
sg5
F0.0
sg6
F0.0
sg7
F0.0
sg8
F0.0
sg9
F46980500000.0
sg10
F659249.0
sg11
I00
sg12
F4.0
ssS'URQUHART JOHN A'
p67
(dp68
g3
F0.0
sg4
F0.0
sg5
F0.0
sg6
F0.0
sg7
F0.0
sg8
F0.0
sg9
F0.0
sg10
F0.0
sg11
I00
sg12
F0.0
ssS'BIBI PHILIPPE A'
p69
(dp70
g3
F213625.0
sg4
F1000000.0
sg5
F1465734000000.0
sg6
F313117425750.0
sg7
F0.2
sg8
F1465734.0
sg9
F213625000000.0
sg10
F1843816.0
sg11
I00
sg12
F23.0
ssS'PIRO JIM'
p71
(dp72
g3
F0.0
sg4
F0.0
sg5
F0.0
sg6
F0.0
sg7
F0.0625
sg8
F0.0
sg9
F0.0
sg10
F47304.0
sg11
I00
sg12
F0.0
ssS'RIEKER PAULA H'
p73
(dp74
g3
F249201.0
sg4
F700000.0
sg5
F1144666600000.0
sg6
F407502944838.0
sg7
F0.5853658536585366
sg8
F1635238.0
sg9
F174440700000.0
sg10
F1918887.0
sg11
I01
sg12
F35.0
ssS'WHALEY DAVID A'
p75
(dp76
g3
F0.0
sg4
F0.0
sg5
F0.0
sg6
F0.0
sg7
F0.0
sg8
F98718.0
sg9
F0.0
sg10
F98718.0
sg11
I00
sg12
F0.0
ssS'BECK SALLY W'
p77
(dp78
g3
F231330.0
sg4
F700000.0
sg5
F0.0
sg6
F0.0
sg7
F0.08887865530739121
sg8
F0.0
sg9
F161931000000.0
sg10
F126027.0
sg11
I00
sg12
F144.0
ssS'HAUG DAVID L'
p79
(dp80
g3
F0.0
sg4
F0.0
sg5
F0.0
sg6
F0.0
sg7
F0.3684210526315789
sg8
F0.0
sg9
F0.0
sg10
F2217299.0
sg11
I00
sg12
F4.0
ssS'ECHOLS JOHN B'
p81
(dp82
g3
F182245.0
sg4
F200000.0
sg5
F120287600000.0
sg6
F109609068310.0
sg7
F0.0
sg8
F601438.0
sg9
F36449000000.0
sg10
F1008941.0
sg11
I00
sg12
F0.0
ssS'MENDELSOHN JOHN'
p83
(dp84
g3
F0.0
sg4
F0.0
sg5
F0.0
sg6
F0.0
sg7
F0.0
sg8
F0.0
sg9
F0.0
sg10
F0.0
sg11
I00
sg12
F0.0
ssS'HICKERSON GARY J'
p85
(dp86
g3
F211788.0
sg4
F1700000.0
sg5
F0.0
sg6
F0.0
sg7
F0.037037037037037035
sg8
F0.0
sg9
F360039600000.0
sg10
F441096.0
sg11
I00
sg12
F40.0
ssS'CLINE KENNETH W'
p87
(dp88
g3
F0.0
sg4
F0.0
sg5
F0.0
sg6
F0.0
sg7
F0.0
sg8
F0.0
sg9
F0.0
sg10
F189518.0
sg11
I00
sg12
F0.0
ssS'LEWIS RICHARD'
p89
(dp90
g3
F0.0
sg4
F0.0
sg5
F0.0
sg6
F0.0
sg7
F0.0
sg8
F850477.0
sg9
F0.0
sg10
F850477.0
sg11
I00
sg12
F10.0
ssS'HAYES ROBERT E'
p91
(dp92
g3
F0.0
sg4
F0.0
sg5
F0.0
sg6
F0.0
sg7
F0.0
sg8
F0.0
sg9
F0.0
sg10
F151418.0
sg11
I00
sg12
F16.0
ssS'KOPPER MICHAEL J'
p93
(dp94
g3
F224305.0
sg4
F800000.0
sg5
F0.0
sg6
F0.0
sg7
F0.0
sg8
F0.0
sg9
F179444000000.0
sg10
F985032.0
sg11
I01
sg12
F0.0
ssS'LEFF DANIEL P'
p95
(dp96
g3
F273746.0
sg4
F1000000.0
sg5
F0.0
sg6
F0.0
sg7
F0.2222222222222222
sg8
F0.0
sg9
F273746000000.0
sg10
F360528.0
sg11
I00
sg12
F67.0
ssS'LAVORATO JOHN J'
p97
(dp98
g3
F339288.0
sg4
F8000000.0
sg5
F33271960000000.0
sg6
F1411097095560.0
sg7
F0.15899419729206962
sg8
F4158995.0
sg9
F2714304000000.0
sg10
F5167144.0
sg11
I00
sg12
F528.0
ssS'BERBERIAN DAVID'
p99
(dp100
g3
F216582.0
sg4
F0.0
sg5
F0.0
sg6
F351814934472.0
sg7
F0.0
sg8
F1624396.0
sg9
F0.0
sg10
F2493616.0
sg11
I00
sg12
F0.0
ssS'DETMERING TIMOTHY J'
p101
(dp102
g3
F210500.0
sg4
F425000.0
sg5
F861842625000.0
sg6
F426865582500.0
sg7
F0.0
sg8
F2027865.0
sg9
F89462500000.0
sg10
F2027865.0
sg11
I00
sg12
F0.0
ssS'WAKEHAM JOHN'
p103
(dp104
g3
F0.0
sg4
F0.0
sg5
F0.0
sg6
F0.0
sg7
F0.0
sg8
F0.0
sg9
F0.0
sg10
F0.0
sg11
I00
sg12
F0.0
ssS'POWERS WILLIAM'
p105
(dp106
g3
F0.0
sg4
F0.0
sg5
F0.0
sg6
F0.0
sg7
F0.0
sg8
F0.0
sg9
F0.0
sg10
F0.0
sg11
I00
sg12
F0.0
ssS'GOLD JOSEPH'
p107
(dp108
g3
F272880.0
sg4
F750000.0
sg5
F327386250000.0
sg6
F119116213200.0
sg7
F0.0
sg8
F436515.0
sg9
F204660000000.0
sg10
F877611.0
sg11
I00
sg12
F0.0
ssS'BANNANTINE JAMES M'
p109
(dp110
g3
F477.0
sg4
F0.0
sg5
F0.0
sg6
F1930016889.0
sg7
F0.0
sg8
F4046157.0
sg9
F0.0
sg10
F5243487.0
sg11
I00
sg12
F39.0
ssS'DUNCAN JOHN H'
p111
(dp112
g3
F0.0
sg4
F0.0
sg5
F0.0
sg6
F0.0
sg7
F0.0
sg8
F371750.0
sg9
F0.0
sg10
F371750.0
sg11
I00
sg12
F0.0
ssS'SHAPIRO RICHARD S'
p113
(dp114
g3
F269076.0
sg4
F650000.0
sg5
F395094050000.0
sg6
F163554348612.0
sg7
F0.053497942386831275
sg8
F607837.0
sg9
F174899400000.0
sg10
F987001.0
sg11
I00
sg12
F74.0
ssS'SHERRIFF JOHN R'
p115
(dp116
g3
F428780.0
sg4
F1500000.0
sg5
F2753337000000.0
sg6
F787050559240.0
sg7
F0.25
sg8
F1835558.0
sg9
F643170000000.0
sg10
F3128982.0
sg11
I00
sg12
F28.0
ssS'SHELBY REX'
p117
(dp118
g3
F211844.0
sg4
F200000.0
sg5
F324879200000.0
sg6
F344118546224.0
sg7
F0.358974358974359
sg8
F1624396.0
sg9
F42368800000.0
sg10
F2493616.0
sg11
I01
sg12
F13.0
ssS'LEMAISTRE CHARLES'
p119
(dp120
g3
F0.0
sg4
F0.0
sg5
F0.0
sg6
F0.0
sg7
F0.0
sg8
F412878.0
sg9
F0.0
sg10
F412878.0
sg11
I00
sg12
F0.0
ssS'DEFFNER JOSEPH M'
p121
(dp122
g3
F206121.0
sg4
F600000.0
sg5
F10426800000.0
sg6
F3581970738.0
sg7
F0.05405405405405406
sg8
F17378.0
sg9
F123672600000.0
sg10
F159211.0
sg11
I00
sg12
F115.0
ssS'KISHKILL JOSEPH G'
p123
(dp124
g3
F174246.0
sg4
F0.0
sg5
F0.0
sg6
F0.0
sg7
F0.0
sg8
F0.0
sg9
F0.0
sg10
F1034346.0
sg11
I00
sg12
F0.0
ssS'WHALLEY LAWRENCE G'
p125
(dp126
g3
F510364.0
sg4
F3000000.0
sg5
F9848880000000.0
sg6
F1675504597440.0
sg7
F0.04316546762589928
sg8
F3282960.0
sg9
F1531092000000.0
sg10
F6079137.0
sg11
I00
sg12
F186.0
ssS'MCCARTY DANNY J'
p127
(dp128
g3
F0.0
sg4
F0.0
sg5
F0.0
sg6
F0.0
sg7
F0.009302325581395349
sg8
F664375.0
sg9
F0.0
sg10
F758931.0
sg11
I00
sg12
F25.0
ssS'MCCONNELL MICHAEL S'
p129
(dp130
g3
F365038.0
sg4
F1100000.0
sg5
F1785311000000.0
sg6
F592460324380.0
sg7
F0.07075127644055434
sg8
F1623010.0
sg9
F401541800000.0
sg10
F3101279.0
sg11
I00
sg12
F92.0
ssS'DELAINEY DAVID W'
p131
(dp132
g3
F365163.0
sg4
F3000000.0
sg5
F6873339000000.0
sg6
F836629696419.0
sg7
F0.198435972629521
sg8
F2291113.0
sg9
F1095489000000.0
sg10
F3614261.0
sg11
I01
sg12
F66.0
ssS'SULLIVAN-SHAKLOVITZ COLLEEN'
p133
(dp134
g3
F162779.0
sg4
F100000.0
sg5
F136237500000.0
sg6
F221766040125.0
sg7
F0.0
sg8
F1362375.0
sg9
F16277900000.0
sg10
F1362375.0
sg11
I00
sg12
F0.0
ssS'WROBEL BRUCE'
p135
(dp136
g3
F0.0
sg4
F0.0
sg5
F0.0
sg6
F0.0
sg7
F0.0
sg8
F139130.0
sg9
F0.0
sg10
F139130.0
sg11
I00
sg12
F0.0
ssS'LINDHOLM TOD A'
p137
(dp138
g3
F236457.0
sg4
F200000.0
sg5
F509872200000.0
sg6
F602814253977.0
sg7
F0.0
sg8
F2549361.0
sg9
F47291400000.0
sg10
F3064208.0
sg11
I00
sg12
F0.0
ssS'MEYER JEROME J'
p139
(dp140
g3
F0.0
sg4
F0.0
sg5
F0.0
sg6
F0.0
sg7
F0.0
sg8
F0.0
sg9
F0.0
sg10
F0.0
sg11
I00
sg12
F0.0
ssS'LAY KENNETH L'
p141
(dp142
g3
F1072321.0
sg4
F7000000.0
sg5
F240438688000000.0
sg6
F36832493479264.0
sg7
F0.4444444444444444
sg8
F34348384.0
sg9
F7506247000000.0
sg10
F49110078.0
sg11
I01
sg12
F123.0
ssS'BUTTS ROBERT H'
p143
(dp144
g3
F261516.0
sg4
F750000.0
sg5
F0.0
sg6
F0.0
sg7
F0.0
sg8
F0.0
sg9
F196137000000.0
sg10
F417619.0
sg11
I00
sg12
F0.0
ssS'OLSON CINDY K'
p145
(dp146
g3
F329078.0
sg4
F750000.0
sg5
F1227775500000.0
sg6
F538711874652.0
sg7
F0.28846153846153844
sg8
F1637034.0
sg9
F246808500000.0
sg10
F2606763.0
sg11
I00
sg12
F20.0
ssS'MCDONALD REBECCA'
p147
(dp148
g3
F0.0
sg4
F0.0
sg5
F0.0
sg6
F0.0
sg7
F0.07692307692307693
sg8
F757301.0
sg9
F0.0
sg10
F1691366.0
sg11
I00
sg12
F54.0
ssS'CUMBERLAND MICHAEL S'
p149
(dp150
g3
F184899.0
sg4
F325000.0
sg5
F0.0
sg6
F0.0
sg7
F0.0
sg8
F0.0
sg9
F60092175000.0
sg10
F207940.0
sg11
I00
sg12
F0.0
ssS'GAHN ROBERT S'
p151
(dp152
g3
F192008.0
sg4
F509870.0
sg5
F42440049190.0
sg6
F15982169896.0
sg7
F0.0
sg8
F83237.0
sg9
F97899118960.0
sg10
F318607.0
sg11
I00
sg12
F0.0
ssS'MCCLELLAN GEORGE'
p153
(dp154
g3
F263413.0
sg4
F900000.0
sg5
F456088500000.0
sg6
F133488488945.0
sg7
F0.0
sg8
F506765.0
sg9
F237071700000.0
sg10
F947861.0
sg11
I00
sg12
F52.0
ssS'HERMANN ROBERT J'
p155
(dp156
g3
F262663.0
sg4
F700000.0
sg5
F131250000000.0
sg6
F49249312500.0
sg7
F0.0
sg8
F187500.0
sg9
F183864100000.0
sg10
F668132.0
sg11
I00
sg12
F0.0
ssS'SCRIMSHAW MATTHEW'
p157
(dp158
g3
F0.0
sg4
F0.0
sg5
F0.0
sg6
F0.0
sg7
F0.0
sg8
F759557.0
sg9
F0.0
sg10
F759557.0
sg11
I00
sg12
F0.0
ssS'GATHMANN WILLIAM D'
p159
(dp160
g3
F0.0
sg4
F0.0
sg5
F0.0
sg6
F0.0
sg7
F0.0
sg8
F1753766.0
sg9
F0.0
sg10
F1945360.0
sg11
I00
sg12
F0.0
ssS'HAEDICKE MARK E'
p161
(dp162
g3
F374125.0
sg4
F1150000.0
sg5
F700062500000.0
sg6
F227748593750.0
sg7
F0.03142709943328181
sg8
F608750.0
sg9
F430243750000.0
sg10
F803094.0
sg11
I00
sg12
F180.0
ssS'BOWEN JR RAYMOND M'
p163
(dp164
g3
F278601.0
sg4
F1350000.0
sg5
F0.0
sg6
F0.0
sg7
F0.5555555555555556
sg8
F0.0
sg9
F376111350000.0
sg10
F252055.0
sg11
I01
sg12
F140.0
ssS'GILLIS JOHN'
p165
(dp166
g3
F0.0
sg4
F0.0
sg5
F0.0
sg6
F0.0
sg7
F0.0
sg8
F9803.0
sg9
F0.0
sg10
F85641.0
sg11
I00
sg12
F0.0
ssS'FITZGERALD JAY L'
p167
(dp168
g3
F199157.0
sg4
F350000.0
sg5
F232561350000.0
sg6
F132332059377.0
sg7
F0.5
sg8
F664461.0
sg9
F69704950000.0
sg10
F1621236.0
sg11
I00
sg12
F1.0
ssS'MORAN MICHAEL P'
p169
(dp170
g3
F0.0
sg4
F0.0
sg5
F0.0
sg6
F0.0
sg7
F0.0
sg8
F59539.0
sg9
F0.0
sg10
F221141.0
sg11
I00
sg12
F0.0
ssS'REDMOND BRIAN L'
p171
(dp172
g3
F96840.0
sg4
F0.0
sg5
F0.0
sg6
F727175336760.0
sg7
F0.22171945701357465
sg8
F7509039.0
sg9
F0.0
sg10
F7890324.0
sg11
I00
sg12
F204.0
ssS'BAZELIDES PHILIP J'
p173
(dp174
g3
F80818.0
sg4
F0.0
sg5
F0.0
sg6
F129279786338.0
sg7
F0.0
sg8
F1599641.0
sg9
F0.0
sg10
F1599641.0
sg11
I00
sg12
F0.0
ssS'BELDEN TIMOTHY N'
p175
(dp176
g3
F213999.0
sg4
F5249999.0
sg5
F5003963046864.0
sg6
F203970150864.0
sg7
F0.2231404958677686
sg8
F953136.0
sg9
F1123494536001.0
sg10
F1110705.0
sg11
I01
sg12
F228.0
ssS'DURAN WILLIAM D'
p177
(dp178
g3
F210692.0
sg4
F750000.0
sg5
F1088901750000.0
sg6
F305897183348.0
sg7
F0.25
sg8
F1451869.0
sg9
F158019000000.0
sg10
F1640910.0
sg11
I00
sg12
F106.0
ssS'THORN TERENCE H'
p179
(dp180
g3
F222093.0
sg4
F0.0
sg5
F0.0
sg6
F988863752268.0
sg7
F0.0
sg8
F4452476.0
sg9
F0.0
sg10
F4817796.0
sg11
I00
sg12
F0.0
ssS'FASTOW ANDREW S'
p181
(dp182
g3
F440698.0
sg4
F1300000.0
sg5
F0.0
sg6
F0.0
sg7
F0.0
sg8
F0.0
sg9
F572907400000.0
sg10
F1794412.0
sg11
I01
sg12
F0.0
ssS'FOY JOE'
p183
(dp184
g3
F0.0
sg4
F0.0
sg5
F0.0
sg6
F0.0
sg7
F0.0
sg8
F343434.0
sg9
F0.0
sg10
F343434.0
sg11
I00
sg12
F0.0
ssS'CALGER CHRISTOPHER F'
p185
(dp186
g3
F240189.0
sg4
F1250000.0
sg5
F0.0
sg6
F0.0
sg7
F0.1736111111111111
sg8
F0.0
sg9
F300236250000.0
sg10
F126027.0
sg11
I01
sg12
F199.0
ssS'RICE KENNETH D'
p187
(dp188
g3
F420636.0
sg4
F1750000.0
sg5
F34639806250000.0
sg6
F8326142595300.0
sg7
F0.2222222222222222
sg8
F19794175.0
sg9
F736113000000.0
sg10
F22542539.0
sg11
I01
sg12
F42.0
ssS'KAMINSKI WINCENTY J'
p189
(dp190
g3
F275101.0
sg4
F400000.0
sg5
F340004000000.0
sg6
F233838601010.0
sg7
F0.011901447661469933
sg8
F850010.0
sg9
F110040400000.0
sg10
F976037.0
sg11
I00
sg12
F41.0
ssS'LOCKHART EUGENE E'
p191
(dp192
g3
F0.0
sg4
F0.0
sg5
F0.0
sg6
F0.0
sg7
F0.0
sg8
F0.0
sg9
F0.0
sg10
F0.0
sg11
I00
sg12
F0.0
ssS'COX DAVID'
p193
(dp194
g3
F314288.0
sg4
F800000.0
sg5
F94040800000.0
sg6
F36944868688.0
sg7
F0.12121212121212122
sg8
F117551.0
sg9
F251430400000.0
sg10
F495633.0
sg11
I00
sg12
F0.0
ssS'OVERDYKE JR JERE C'
p195
(dp196
g3
F94941.0
sg4
F0.0
sg5
F0.0
sg6
F500014181898.0
sg7
F0.0
sg8
F5266578.0
sg9
F0.0
sg10
F7307594.0
sg11
I00
sg12
F0.0
ssS'PEREIRA PAULO V. FERRAZ'
p197
(dp198
g3
F0.0
sg4
F0.0
sg5
F0.0
sg6
F0.0
sg7
F0.0
sg8
F0.0
sg9
F0.0
sg10
F0.0
sg11
I00
sg12
F0.0
ssS'STABLER FRANK'
p199
(dp200
g3
F239502.0
sg4
F500000.0
sg5
F0.0
sg6
F0.0
sg7
F0.0
sg8
F0.0
sg9
F119751000000.0
sg10
F511734.0
sg11
I00
sg12
F0.0
ssS'SKILLING JEFFREY K'
p201
(dp202
g3
F1111258.0
sg4
F5600000.0
sg5
F107800000000000.0
sg6
F21391716500000.0
sg7
F0.2777777777777778
sg8
F19250000.0
sg9
F6223044800000.0
sg10
F26093672.0
sg11
I01
sg12
F88.0
ssS'BLAKE JR. NORMAN P'
p203
(dp204
g3
F0.0
sg4
F0.0
sg5
F0.0
sg6
F0.0
sg7
F0.0
sg8
F0.0
sg9
F0.0
sg10
F0.0
sg11
I00
sg12
F0.0
ssS'SHERRICK JEFFREY B'
p205
(dp206
g3
F0.0
sg4
F0.0
sg5
F0.0
sg6
F0.0
sg7
F0.72
sg8
F1426469.0
sg9
F0.0
sg10
F1832468.0
sg11
I00
sg12
F39.0
ssS'PRENTICE JAMES'
p207
(dp208
g3
F0.0
sg4
F0.0
sg5
F0.0
sg6
F0.0
sg7
F0.0
sg8
F886231.0
sg9
F0.0
sg10
F1095040.0
sg11
I00
sg12
F0.0
ssS'GRAY RODNEY'
p209
(dp210
g3
F6615.0
sg4
F0.0
sg5
F0.0
sg6
F0.0
sg7
F0.0
sg8
F0.0
sg9
F0.0
sg10
F0.0
sg11
I00
sg12
F0.0
ssS'PICKERING MARK R'
p211
(dp212
g3
F655037.0
sg4
F300000.0
sg5
F8639400000.0
sg6
F18863755526.0
sg7
F0.0
sg8
F28798.0
sg9
F196511100000.0
sg10
F28798.0
sg11
I00
sg12
F7.0
ssS'NOLES JAMES L'
p213
(dp214
g3
F0.0
sg4
F0.0
sg5
F0.0
sg6
F0.0
sg7
F0.0
sg8
F0.0
sg9
F0.0
sg10
F368705.0
sg11
I00
sg12
F0.0
ssS'KEAN STEVEN J'
p215
(dp216
g3
F404338.0
sg4
F1000000.0
sg5
F2022048000000.0
sg6
F817590844224.0
sg7
F0.05725699067909454
sg8
F2022048.0
sg9
F404338000000.0
sg10
F6153642.0
sg11
I00
sg12
F140.0
ssS'FOWLER PEGGY'
p217
(dp218
g3
F0.0
sg4
F0.0
sg5
F0.0
sg6
F0.0
sg7
F0.0
sg8
F1324578.0
sg9
F0.0
sg10
F1884748.0
sg11
I00
sg12
F0.0
ssS'WASAFF GEORGE'
p219
(dp220
g3
F259996.0
sg4
F325000.0
sg5
F542184500000.0
sg6
F433740926960.0
sg7
F0.23333333333333334
sg8
F1668260.0
sg9
F84498700000.0
sg10
F2056427.0
sg11
I00
sg12
F22.0
ssS'WHITE JR THOMAS E'
p221
(dp222
g3
F317543.0
sg4
F450000.0
sg5
F583672050000.0
sg6
F411868830607.0
sg7
F0.0
sg8
F1297049.0
sg9
F142894350000.0
sg10
F15144123.0
sg11
I00
sg12
F0.0
ssS'CHRISTODOULOU DIOMEDES'
p223
(dp224
g3
F0.0
sg4
F0.0
sg5
F0.0
sg6
F0.0
sg7
F0.0
sg8
F5127155.0
sg9
F0.0
sg10
F6077885.0
sg11
I00
sg12
F0.0
ssS'ALLEN PHILLIP K'
p225
(dp226
g3
F201955.0
sg4
F4175000.0
sg5
F7220833675000.0
sg6
F349289452655.0
sg7
F0.029612756264236904
sg8
F1729541.0
sg9
F843162125000.0
sg10
F1729541.0
sg11
I00
sg12
F47.0
ssS'SHARP VICTORIA T'
p227
(dp228
g3
F248146.0
sg4
F600000.0
sg5
F168643800000.0
sg6
F69747140658.0
sg7
F0.04411764705882353
sg8
F281073.0
sg9
F148887600000.0
sg10
F494136.0
sg11
I00
sg12
F24.0
ssS'JAEDICKE ROBERT'
p229
(dp230
g3
F0.0
sg4
F0.0
sg5
F0.0
sg6
F0.0
sg7
F0.0
sg8
F431750.0
sg9
F0.0
sg10
F431750.0
sg11
I00
sg12
F0.0
ssS'WINOKUR JR. HERBERT S'
p231
(dp232
g3
F0.0
sg4
F0.0
sg5
F0.0
sg6
F0.0
sg7
F0.0
sg8
F0.0
sg9
F0.0
sg10
F0.0
sg11
I00
sg12
F0.0
ssS'BROWN MICHAEL'
p233
(dp234
g3
F0.0
sg4
F0.0
sg5
F0.0
sg6
F0.0
sg7
F0.024390243902439025
sg8
F0.0
sg9
F0.0
sg10
F0.0
sg11
I00
sg12
F13.0
ssS'BADUM JAMES P'
p235
(dp236
g3
F0.0
sg4
F0.0
sg5
F0.0
sg6
F0.0
sg7
F0.0
sg8
F257817.0
sg9
F0.0
sg10
F257817.0
sg11
I00
sg12
F0.0
ssS'HUGHES JAMES A'
p237
(dp238
g3
F0.0
sg4
F0.0
sg5
F0.0
sg6
F0.0
sg7
F0.14705882352941177
sg8
F754966.0
sg9
F0.0
sg10
F1118394.0
sg11
I00
sg12
F35.0
ssS'REYNOLDS LAWRENCE'
p239
(dp240
g3
F76399.0
sg4
F100000.0
sg5
F416067200000.0
sg6
F317871180128.0
sg7
F0.0
sg8
F4160672.0
sg9
F7639900000.0
sg10
F4221891.0
sg11
I00
sg12
F0.0
ssS'DIMICHELE RICHARD G'
p241
(dp242
g3
F262788.0
sg4
F1000000.0
sg5
F8191755000000.0
sg6
F2152694912940.0
sg7
F0.0
sg8
F8191755.0
sg9
F262788000000.0
sg10
F8317782.0
sg11
I00
sg12
F0.0
ssS'BHATNAGAR SANJAY'
p243
(dp244
g3
F0.0
sg4
F0.0
sg5
F0.0
sg6
F0.0
sg7
F0.034482758620689655
sg8
F2604490.0
sg9
F0.0
sg10
F0.0
sg11
I00
sg12
F0.0
ssS'CARTER REBECCA C'
p245
(dp246
g3
F261809.0
sg4
F300000.0
sg5
F0.0
sg6
F0.0
sg7
F0.4666666666666667
sg8
F0.0
sg9
F78542700000.0
sg10
F0.0
sg11
I00
sg12
F29.0
ssS'BUCHANAN HAROLD G'
p247
(dp248
g3
F248017.0
sg4
F500000.0
sg5
F412732000000.0
sg6
F204729104888.0
sg7
F0.0
sg8
F825464.0
sg9
F124008500000.0
sg10
F1014505.0
sg11
I00
sg12
F0.0
ssS'YEAP SOON'
p249
(dp250
g3
F0.0
sg4
F0.0
sg5
F0.0
sg6
F0.0
sg7
F0.0
sg8
F192758.0
sg9
F0.0
sg10
F192758.0
sg11
I00
sg12
F0.0
ssS'MURRAY JULIA H'
p251
(dp252
g3
F229284.0
sg4
F400000.0
sg5
F160191200000.0
sg6
F91823197752.0
sg7
F0.044444444444444446
sg8
F400478.0
sg9
F91713600000.0
sg10
F597461.0
sg11
I00
sg12
F11.0
ssS'GARLAND C KEVIN'
p253
(dp254
g3
F231946.0
sg4
F850000.0
sg5
F540809100000.0
sg6
F147574714716.0
sg7
F0.6136363636363636
sg8
F636246.0
sg9
F197154100000.0
sg10
F896153.0
sg11
I00
sg12
F10.0
ssS'DODSON KEITH'
p255
(dp256
g3
F221003.0
sg4
F70000.0
sg5
F0.0
sg6
F0.0
sg7
F0.21428571428571427
sg8
F0.0
sg9
F15470210000.0
sg10
F0.0
sg11
I00
sg12
F10.0
ssS'YEAGER F SCOTT'
p257
(dp258
g3
F158403.0
sg4
F0.0
sg5
F0.0
sg6
F1316099562456.0
sg7
F0.0
sg8
F8308552.0
sg9
F0.0
sg10
F11884758.0
sg11
I01
sg12
F0.0
ssS'HIRKO JOSEPH'
p259
(dp260
g3
F0.0
sg4
F0.0
sg5
F0.0
sg6
F0.0
sg7
F0.0
sg8
F30766064.0
sg9
F0.0
sg10
F30766064.0
sg11
I01
sg12
F0.0
ssS'DIETRICH JANET R'
p261
(dp262
g3
F250100.0
sg4
F600000.0
sg5
F930011400000.0
sg6
F387659751900.0
sg7
F0.2222222222222222
sg8
F1550019.0
sg9
F150060000000.0
sg10
F1865087.0
sg11
I00
sg12
F305.0
ssS'DERRICK JR. JAMES V'
p263
(dp264
g3
F492375.0
sg4
F800000.0
sg5
F7065530400000.0
sg6
F4348613163375.0
sg7
F0.022002200220022004
sg8
F8831913.0
sg9
F393900000000.0
sg10
F8831913.0
sg11
I00
sg12
F64.0
ssS'FREVERT MARK A'
p265
(dp266
g3
F1060932.0
sg4
F2000000.0
sg5
F20867036000000.0
sg6
F11069253118776.0
sg7
F0.2857142857142857
sg8
F10433518.0
sg9
F2121864000000.0
sg10
F14622185.0
sg11
I00
sg12
F242.0
ssS'PAI LOU L'
p267
(dp268
g3
F261879.0
sg4
F1000000.0
sg5
F15364167000000.0
sg6
F4023552689793.0
sg7
F0.0
sg8
F15364167.0
sg9
F261879000000.0
sg10
F23817930.0
sg11
I00
sg12
F0.0
ssS'BAY FRANKLIN R'
p269
(dp270
g3
F239671.0
sg4
F400000.0
sg5
F0.0
sg6
F0.0
sg7
F0.0
sg8
F0.0
sg9
F95868400000.0
sg10
F63014.0
sg11
I00
sg12
F0.0
ssS'HAYSLETT RODERICK J'
p271
(dp272
g3
F0.0
sg4
F0.0
sg5
F0.0
sg6
F0.0
sg7
F0.03581526861451461
sg8
F0.0
sg9
F0.0
sg10
F346663.0
sg11
I00
sg12
F35.0
ssS'FUGH JOHN L'
p273
(dp274
g3
F0.0
sg4
F0.0
sg5
F0.0
sg6
F0.0
sg7
F0.0
sg8
F176378.0
sg9
F0.0
sg10
F176378.0
sg11
I00
sg12
F0.0
ssS'FALLON JAMES B'
p275
(dp276
g3
F304588.0
sg4
F2500000.0
sg5
F2350642500000.0
sg6
F286390999116.0
sg7
F0.49333333333333335
sg8
F940257.0
sg9
F761470000000.0
sg10
F2332399.0
sg11
I00
sg12
F42.0
ssS'KOENIG MARK E'
p277
(dp278
g3
F309946.0
sg4
F700000.0
sg5
F470215900000.0
sg6
F208202196202.0
sg7
F0.2459016393442623
sg8
F671737.0
sg9
F216962200000.0
sg10
F1920055.0
sg11
I01
sg12
F53.0
ssS'SAVAGE FRANK'
p279
(dp280
g3
F0.0
sg4
F0.0
sg5
F0.0
sg6
F0.0
sg7
F0.0
sg8
F0.0
sg9
F0.0
sg10
F0.0
sg11
I00
sg12
F0.0
ssS'IZZO LAWRENCE L'
p281
(dp282
g3
F85274.0
sg4
F0.0
sg5
F0.0
sg6
F184632877128.0
sg7
F0.2631578947368421
sg8
F2165172.0
sg9
F0.0
sg10
F5819980.0
sg11
I00
sg12
F28.0
ssS'TILNEY ELIZABETH A'
p283
(dp284
g3
F247338.0
sg4
F300000.0
sg5
F177375000000.0
sg6
F146238592500.0
sg7
F0.5789473684210527
sg8
F591250.0
sg9
F74201400000.0
sg10
F1168042.0
sg11
I00
sg12
F10.0
ssS'MARTIN AMANDA K'
p285
(dp286
g3
F349487.0
sg4
F0.0
sg5
F0.0
sg6
F723545033022.0
sg7
F0.0
sg8
F2070306.0
sg9
F0.0
sg10
F2070306.0
sg11
I00
sg12
F8.0
ssS'BUY RICHARD B'
p287
(dp288
g3
F330546.0
sg4
F900000.0
sg5
F2288531700000.0
sg6
F840516665898.0
sg7
F0.06742640075973409
sg8
F2542813.0
sg9
F297491400000.0
sg10
F3444470.0
sg11
I00
sg12
F156.0
ssS'GRAMM WENDY L'
p289
(dp290
g3
F0.0
sg4
F0.0
sg5
F0.0
sg6
F0.0
sg7
F0.0
sg8
F0.0
sg9
F0.0
sg10
F0.0
sg11
I00
sg12
F0.0
ssS'CAUSEY RICHARD A'
p291
(dp292
g3
F415189.0
sg4
F1000000.0
sg5
F0.0
sg6
F0.0
sg7
F0.24489795918367346
sg8
F0.0
sg9
F415189000000.0
sg10
F2502063.0
sg11
I01
sg12
F58.0
ssS'TAYLOR MITCHELL S'
p293
(dp294
g3
F265214.0
sg4
F600000.0
sg5
F1908750000000.0
sg6
F843712037500.0
sg7
F0.0
sg8
F3181250.0
sg9
F159128400000.0
sg10
F3745048.0
sg11
I00
sg12
F0.0
ssS'DONAHUE JR JEFFREY M'
p295
(dp296
g3
F278601.0
sg4
F800000.0
sg5
F612736000000.0
sg6
F213386077920.0
sg7
F0.5
sg8
F765920.0
sg9
F222880800000.0
sg10
F1080988.0
sg11
I00
sg12
F188.0
ssS'GLISAN JR BEN F'
p297
(dp298
g3
F274975.0
sg4
F600000.0
sg5
F230836800000.0
sg6
F105790581800.0
sg7
F0.375
sg8
F384728.0
sg9
F164985000000.0
sg10
F778546.0
sg11
I01
sg12
F52.0
ss.