(dp0
S'METTS MARK'
p1
(dp2
S'bonus_stock'
p3
F861842625000.0
sS'poi'
p4
I00
sS'from_ratio'
p5
F0.034482758620689655
sS'exercised_stock_options'
p6
F1297049.0
sS'bonus_salary'
p7
F219472800000.0
sS'total_stock_value'
p8
F585062.0
sS'stock_salary'
p9
F344118546224.0
ssS'BAXTER JOHN C'
p10
(dp11
g3
F8016652800000.0
sg4
I00
sg5
F0.10057358691295487
sg6
F6680544.0
sg7
F320522400000.0
sg8
F10623258.0
sg9
F1784386663488.0
ssS'ELLIOTT STEVEN'
p12
(dp13
g3
F1711620400000.0
sg4
I00
sg5
F0.10057358691295487
sg6
F4890344.0
sg7
F59829350000.0
sg8
F6678735.0
sg9
F835960293704.0
ssS'CORDES WILLIAM R'
p14
(dp15
g3
F861842625000.0
sg4
I00
sg5
F0.0
sg6
F651850.0
sg7
F211264100000.0
sg8
F1038185.0
sg9
F344118546224.0
ssS'HANNON KEVIN P'
p16
(dp17
g3
F8307001500000.0
sg4
I01
sg5
F0.65625
sg6
F5538001.0
sg7
F364939500000.0
sg8
F6391065.0
sg9
F1347356877293.0
ssS'MORDAUNT KRISTINA M'
p18
(dp19
g3
F861842625000.0
sg4
I00
sg5
F0.10057358691295487
sg6
F1297049.0
sg7
F86805225000.0
sg8
F208510.0
sg9
F344118546224.0
ssS'MEYER ROCKFORD G'
p20
(dp21
g3
F861842625000.0
sg4
I00
sg5
F0.0
sg6
F493489.0
sg7
F211264100000.0
sg8
F955873.0
sg9
F344118546224.0
ssS'MCMAHON JEFFREY'
p22
(dp23
g3
F2870540400000.0
sg4
I00
sg5
F0.5416666666666666
sg6
F1104054.0
sg7
F963164800000.0
sg8
F1662855.0
sg9
F408994596192.0
ssS'HORTON STANLEY C'
p24
(dp25
g3
F861842625000.0
sg4
I00
sg5
F0.013979496738117428
sg6
F5210569.0
sg7
F211264100000.0
sg8
F7256648.0
sg9
F344118546224.0
ssS'PIPER GREGORY F'
p26
(dp27
g3
F352116000000.0
sg4
I00
sg5
F0.21621621621621623
sg6
F880290.0
sg7
F78836400000.0
sg8
F880290.0
sg9
F173497236390.0
ssS'HUMPHREY GENE E'
p28
(dp29
g3
F861842625000.0
sg4
I00
sg5
F1.0
sg6
F2282768.0
sg7
F211264100000.0
sg8
F2282768.0
sg9
F298412564032.0
ssS'UMANOFF ADAM S'
p30
(dp31
g3
F861842625000.0
sg4
I00
sg5
F0.0
sg6
F1297049.0
sg7
F227624573750.0
sg8
F1095040.0
sg9
F344118546224.0
ssS'BLACHMAN JEREMY M'
p32
(dp33
g3
F650516050000.0
sg4
I00
sg5
F0.14285714285714285
sg6
F765313.0
sg7
F211264100000.0
sg8
F954354.0
sg9
F190215484898.0
ssS'SUNDE MARTIN'
p34
(dp35
g3
F861842625000.0
sg4
I00
sg5
F0.34210526315789475
sg6
F1297049.0
sg7
F180240200000.0
sg8
F698920.0
sg9
F344118546224.0
ssS'GIBBS DANA R'
p36
(dp37
g3
F861842625000.0
sg4
I00
sg5
F0.0
sg6
F2218275.0
sg7
F211264100000.0
sg8
F2218275.0
sg9
F344118546224.0
ssS'LOWRY CHARLES P'
p38
(dp39
g3
F861842625000.0
sg4
I00
sg5
F0.10057358691295487
sg6
F372205.0
sg7
F211264100000.0
sg8
F372205.0
sg9
F344118546224.0
ssS'COLWELL WESLEY'
p40
(dp41
g3
F861842625000.0
sg4
I01
sg5
F0.275
sg6
F1297049.0
sg7
F346250400000.0
sg8
F698242.0
sg9
F344118546224.0
ssS'MULLER MARK S'
p42
(dp43
g3
F1161952000000.0
sg4
I00
sg5
F0.0
sg6
F1056320.0
sg7
F276819400000.0
sg8
F1416848.0
sg9
F265827153280.0
ssS'JACKSON CHARLENE R'
p44
(dp45
g3
F46265750000.0
sg4
I00
sg5
F0.3392857142857143
sg6
F185063.0
sg7
F72139500000.0
sg8
F725735.0
sg9
F53401409154.0
ssS'WESTFAHL RICHARD K'
p46
(dp47
g3
F861842625000.0
sg4
I00
sg5
F0.10057358691295487
sg6
F1297049.0
sg7
F211264100000.0
sg8
F384930.0
sg9
F344118546224.0
ssS'WALTERS GARETH W'
p48
(dp49
g3
F861842625000.0
sg4
I00
sg5
F0.10057358691295487
sg6
F1030329.0
sg7
F211264100000.0
sg8
F1030329.0
sg9
F344118546224.0
ssS'WALLS JR ROBERT H'
p50
(dp51
g3
F3694562400000.0
sg4
I00
sg5
F0.0
sg6
F4346544.0
sg7
F303527350000.0
sg8
F5898997.0
sg9
F1552111743504.0
ssS'KITCHEN LOUISE'
p52
(dp53
g3
F251230200000.0
sg4
I00
sg5
F0.11226851851851852
sg6
F81042.0
sg7
F841470200000.0
sg8
F547143.0
sg9
F21998202564.0
ssS'CHAN RONNIE'
p54
(dp55
g3
F861842625000.0
sg4
I00
sg5
F0.10057358691295487
sg6
F1297049.0
sg7
F211264100000.0
sg8
F1095040.0
sg9
F344118546224.0
ssS'BELFER ROBERT'
p56
(dp57
g3
F861842625000.0
sg4
I00
sg5
F0.10057358691295487
sg6
F3285.0
sg7
F211264100000.0
sg8
F-44093.0
sg9
F344118546224.0
ssS'SHANKMAN JEFFREY A'
p58
(dp59
g3
F2883796000000.0
sg4
I00
sg5
F0.030958597538232
sg6
F1441898.0
sg7
F608220000000.0
sg8
F2072035.0
sg9
F438495600780.0
ssS'WODRASKA JOHN'
p60
(dp61
g3
F861842625000.0
sg4
I00
sg5
F0.10057358691295487
sg6
F1297049.0
sg7
F211264100000.0
sg8
F1095040.0
sg9
F344118546224.0
ssS'BERGSIEKER RICHARD P'
p62
(dp63
g3
F861842625000.0
sg4
I00
sg5
F0.0
sg6
F1297049.0
sg7
F46980500000.0
sg8
F659249.0
sg9
F344118546224.0
ssS'URQUHART JOHN A'
p64
(dp65
g3
F861842625000.0
sg4
I00
sg5
F0.10057358691295487
sg6
F1297049.0
sg7
F211264100000.0
sg8
F1095040.0
sg9
F344118546224.0
ssS'BIBI PHILIPPE A'
p66
(dp67
g3
F1465734000000.0
sg4
I00
sg5
F0.2
sg6
F1465734.0
sg7
F213625000000.0
sg8
F1843816.0
sg9
F313117425750.0
ssS'PIRO JIM'
p68
(dp69
g3
F861842625000.0
sg4
I00
sg5
F0.0625
sg6
F1297049.0
sg7
F211264100000.0
sg8
F47304.0
sg9
F344118546224.0
ssS'RIEKER PAULA H'
p70
(dp71
g3
F1144666600000.0
sg4
I01
sg5
F0.5853658536585366
sg6
F1635238.0
sg7
F174440700000.0
sg8
F1918887.0
sg9
F407502944838.0
ssS'WHALEY DAVID A'
p72
(dp73
g3
F861842625000.0
sg4
I00
sg5
F0.10057358691295487
sg6
F98718.0
sg7
F211264100000.0
sg8
F98718.0
sg9
F344118546224.0
ssS'BECK SALLY W'
p74
(dp75
g3
F861842625000.0
sg4
I00
sg5
F0.08887865530739121
sg6
F1297049.0
sg7
F161931000000.0
sg8
F126027.0
sg9
F344118546224.0
ssS'HAUG DAVID L'
p76
(dp77
g3
F861842625000.0
sg4
I00
sg5
F0.3684210526315789
sg6
F1297049.0
sg7
F211264100000.0
sg8
F2217299.0
sg9
F344118546224.0
ssS'ECHOLS JOHN B'
p78
(dp79
g3
F120287600000.0
sg4
I00
sg5
F0.10057358691295487
sg6
F601438.0
sg7
F36449000000.0
sg8
F1008941.0
sg9
F109609068310.0
ssS'MENDELSOHN JOHN'
p80
(dp81
g3
F861842625000.0
sg4
I00
sg5
F0.10057358691295487
sg6
F1297049.0
sg7
F211264100000.0
sg8
F1095040.0
sg9
F344118546224.0
ssS'HICKERSON GARY J'
p82
(dp83
g3
F861842625000.0
sg4
I00
sg5
F0.037037037037037035
sg6
F1297049.0
sg7
F360039600000.0
sg8
F441096.0
sg9
F344118546224.0
ssS'CLINE KENNETH W'
p84
(dp85
g3
F861842625000.0
sg4
I00
sg5
F0.10057358691295487
sg6
F1297049.0
sg7
F211264100000.0
sg8
F189518.0
sg9
F344118546224.0
ssS'LEWIS RICHARD'
p86
(dp87
g3
F861842625000.0
sg4
I00
sg5
F0.0
sg6
F850477.0
sg7
F211264100000.0
sg8
F850477.0
sg9
F344118546224.0
ssS'HAYES ROBERT E'
p88
(dp89
g3
F861842625000.0
sg4
I00
sg5
F0.0
sg6
F1297049.0
sg7
F211264100000.0
sg8
F151418.0
sg9
F344118546224.0
ssS'KOPPER MICHAEL J'
p90
(dp91
g3
F861842625000.0
sg4
I01
sg5
F0.10057358691295487
sg6
F1297049.0
sg7
F179444000000.0
sg8
F985032.0
sg9
F344118546224.0
ssS'LEFF DANIEL P'
p92
(dp93
g3
F861842625000.0
sg4
I00
sg5
F0.2222222222222222
sg6
F1297049.0
sg7
F273746000000.0
sg8
F360528.0
sg9
F344118546224.0
ssS'LAVORATO JOHN J'
p94
(dp95
g3
F33271960000000.0
sg4
I00
sg5
F0.15899419729206962
sg6
F4158995.0
sg7
F2714304000000.0
sg8
F5167144.0
sg9
F1411097095560.0
ssS'BERBERIAN DAVID'
p96
(dp97
g3
F861842625000.0
sg4
I00
sg5
F0.10057358691295487
sg6
F1624396.0
sg7
F211264100000.0
sg8
F2493616.0
sg9
F351814934472.0
ssS'DETMERING TIMOTHY J'
p98
(dp99
g3
F861842625000.0
sg4
I00
sg5
F0.10057358691295487
sg6
F2027865.0
sg7
F89462500000.0
sg8
F2027865.0
sg9
F426865582500.0
ssS'WAKEHAM JOHN'
p100
(dp101
g3
F861842625000.0
sg4
I00
sg5
F0.10057358691295487
sg6
F1297049.0
sg7
F211264100000.0
sg8
F1095040.0
sg9
F344118546224.0
ssS'POWERS WILLIAM'
p102
(dp103
g3
F861842625000.0
sg4
I00
sg5
F0.0
sg6
F1297049.0
sg7
F211264100000.0
sg8
F1095040.0
sg9
F344118546224.0
ssS'GOLD JOSEPH'
p104
(dp105
g3
F327386250000.0
sg4
I00
sg5
F0.10057358691295487
sg6
F436515.0
sg7
F204660000000.0
sg8
F877611.0
sg9
F119116213200.0
ssS'BANNANTINE JAMES M'
p106
(dp107
g3
F861842625000.0
sg4
I00
sg5
F0.0
sg6
F4046157.0
sg7
F211264100000.0
sg8
F5243487.0
sg9
F1930016889.0
ssS'DUNCAN JOHN H'
p108
(dp109
g3
F861842625000.0
sg4
I00
sg5
F0.10057358691295487
sg6
F371750.0
sg7
F211264100000.0
sg8
F371750.0
sg9
F344118546224.0
ssS'SHAPIRO RICHARD S'
p110
(dp111
g3
F395094050000.0
sg4
I00
sg5
F0.053497942386831275
sg6
F607837.0
sg7
F174899400000.0
sg8
F987001.0
sg9
F163554348612.0
ssS'SHERRIFF JOHN R'
p112
(dp113
g3
F2753337000000.0
sg4
I00
sg5
F0.25
sg6
F1835558.0
sg7
F643170000000.0
sg8
F3128982.0
sg9
F787050559240.0
ssS'SHELBY REX'
p114
(dp115
g3
F324879200000.0
sg4
I01
sg5
F0.358974358974359
sg6
F1624396.0
sg7
F42368800000.0
sg8
F2493616.0
sg9
F344118546224.0
ssS'LEMAISTRE CHARLES'
p116
(dp117
g3
F861842625000.0
sg4
I00
sg5
F0.10057358691295487
sg6
F412878.0
sg7
F211264100000.0
sg8
F412878.0
sg9
F344118546224.0
ssS'DEFFNER JOSEPH M'
p118
(dp119
g3
F10426800000.0
sg4
I00
sg5
F0.05405405405405406
sg6
F17378.0
sg7
F123672600000.0
sg8
F159211.0
sg9
F3581970738.0
ssS'KISHKILL JOSEPH G'
p120
(dp121
g3
F861842625000.0
sg4
I00
sg5
F0.10057358691295487
sg6
F1297049.0
sg7
F211264100000.0
sg8
F1034346.0
sg9
F344118546224.0
ssS'WHALLEY LAWRENCE G'
p122
(dp123
g3
F9848880000000.0
sg4
I00
sg5
F0.04316546762589928
sg6
F3282960.0
sg7
F1531092000000.0
sg8
F6079137.0
sg9
F1675504597440.0
ssS'MCCARTY DANNY J'
p124
(dp125
g3
F861842625000.0
sg4
I00
sg5
F0.009302325581395349
sg6
F664375.0
sg7
F211264100000.0
sg8
F758931.0
sg9
F344118546224.0
ssS'MCCONNELL MICHAEL S'
p126
(dp127
g3
F1785311000000.0
sg4
I00
sg5
F0.07075127644055434
sg6
F1623010.0
sg7
F401541800000.0
sg8
F3101279.0
sg9
F592460324380.0
ssS'DELAINEY DAVID W'
p128
(dp129
g3
F6873339000000.0
sg4
I01
sg5
F0.198435972629521
sg6
F2291113.0
sg7
F1095489000000.0
sg8
F3614261.0
sg9
F836629696419.0
ssS'SULLIVAN-SHAKLOVITZ COLLEEN'
p130
(dp131
g3
F136237500000.0
sg4
I00
sg5
F0.10057358691295487
sg6
F1362375.0
sg7
F16277900000.0
sg8
F1362375.0
sg9
F221766040125.0
ssS'WROBEL BRUCE'
p132
(dp133
g3
F861842625000.0
sg4
I00
sg5
F0.10057358691295487
sg6
F139130.0
sg7
F211264100000.0
sg8
F139130.0
sg9
F344118546224.0
ssS'LINDHOLM TOD A'
p134
(dp135
g3
F509872200000.0
sg4
I00
sg5
F0.10057358691295487
sg6
F2549361.0
sg7
F47291400000.0
sg8
F3064208.0
sg9
F602814253977.0
ssS'MEYER JEROME J'
p136
(dp137
g3
F861842625000.0
sg4
I00
sg5
F0.10057358691295487
sg6
F1297049.0
sg7
F211264100000.0
sg8
F1095040.0
sg9
F344118546224.0
ssS'LAY KENNETH L'
p138
(dp139
g3
F240438688000000.0
sg4
I01
sg5
F0.4444444444444444
sg6
F34348384.0
sg7
F7506247000000.0
sg8
F49110078.0
sg9
F36832493479264.0
ssS'BUTTS ROBERT H'
p140
(dp141
g3
F861842625000.0
sg4
I00
sg5
F0.10057358691295487
sg6
F1297049.0
sg7
F196137000000.0
sg8
F417619.0
sg9
F344118546224.0
ssS'OLSON CINDY K'
p142
(dp143
g3
F1227775500000.0
sg4
I00
sg5
F0.28846153846153844
sg6
F1637034.0
sg7
F246808500000.0
sg8
F2606763.0
sg9
F538711874652.0
ssS'MCDONALD REBECCA'
p144
(dp145
g3
F861842625000.0
sg4
I00
sg5
F0.07692307692307693
sg6
F757301.0
sg7
F211264100000.0
sg8
F1691366.0
sg9
F344118546224.0
ssS'CUMBERLAND MICHAEL S'
p146
(dp147
g3
F861842625000.0
sg4
I00
sg5
F0.10057358691295487
sg6
F1297049.0
sg7
F60092175000.0
sg8
F207940.0
sg9
F344118546224.0
ssS'GAHN ROBERT S'
p148
(dp149
g3
F42440049190.0
sg4
I00
sg5
F0.10057358691295487
sg6
F83237.0
sg7
F97899118960.0
sg8
F318607.0
sg9
F15982169896.0
ssS'MCCLELLAN GEORGE'
p150
(dp151
g3
F456088500000.0
sg4
I00
sg5
F0.0
sg6
F506765.0
sg7
F237071700000.0
sg8
F947861.0
sg9
F133488488945.0
ssS'HERMANN ROBERT J'
p152
(dp153
g3
F131250000000.0
sg4
I00
sg5
F0.10057358691295487
sg6
F187500.0
sg7
F183864100000.0
sg8
F668132.0
sg9
F49249312500.0
ssS'SCRIMSHAW MATTHEW'
p154
(dp155
g3
F861842625000.0
sg4
I00
sg5
F0.10057358691295487
sg6
F759557.0
sg7
F211264100000.0
sg8
F759557.0
sg9
F344118546224.0
ssS'GATHMANN WILLIAM D'
p156
(dp157
g3
F861842625000.0
sg4
I00
sg5
F0.10057358691295487
sg6
F1753766.0
sg7
F211264100000.0
sg8
F1945360.0
sg9
F344118546224.0
ssS'HAEDICKE MARK E'
p158
(dp159
g3
F700062500000.0
sg4
I00
sg5
F0.03142709943328181
sg6
F608750.0
sg7
F430243750000.0
sg8
F803094.0
sg9
F227748593750.0
ssS'BOWEN JR RAYMOND M'
p160
(dp161
g3
F861842625000.0
sg4
I01
sg5
F0.5555555555555556
sg6
F1297049.0
sg7
F376111350000.0
sg8
F252055.0
sg9
F344118546224.0
ssS'GILLIS JOHN'
p162
(dp163
g3
F861842625000.0
sg4
I00
sg5
F0.10057358691295487
sg6
F9803.0
sg7
F211264100000.0
sg8
F85641.0
sg9
F344118546224.0
ssS'FITZGERALD JAY L'
p164
(dp165
g3
F232561350000.0
sg4
I00
sg5
F0.5
sg6
F664461.0
sg7
F69704950000.0
sg8
F1621236.0
sg9
F132332059377.0
ssS'MORAN MICHAEL P'
p166
(dp167
g3
F861842625000.0
sg4
I00
sg5
F0.0
sg6
F59539.0
sg7
F211264100000.0
sg8
F221141.0
sg9
F344118546224.0
ssS'REDMOND BRIAN L'
p168
(dp169
g3
F861842625000.0
sg4
I00
sg5
F0.22171945701357465
sg6
F7509039.0
sg7
F211264100000.0
sg8
F7890324.0
sg9
F727175336760.0
ssS'BAZELIDES PHILIP J'
p170
(dp171
g3
F861842625000.0
sg4
I00
sg5
F0.10057358691295487
sg6
F1599641.0
sg7
F211264100000.0
sg8
F1599641.0
sg9
F129279786338.0
ssS'BELDEN TIMOTHY N'
p172
(dp173
g3
F5003963046864.0
sg4
I01
sg5
F0.2231404958677686
sg6
F953136.0
sg7
F1123494536001.0
sg8
F1110705.0
sg9
F203970150864.0
ssS'DURAN WILLIAM D'
p174
(dp175
g3
F1088901750000.0
sg4
I00
sg5
F0.25
sg6
F1451869.0
sg7
F158019000000.0
sg8
F1640910.0
sg9
F305897183348.0
ssS'THORN TERENCE H'
p176
(dp177
g3
F861842625000.0
sg4
I00
sg5
F0.0
sg6
F4452476.0
sg7
F211264100000.0
sg8
F4817796.0
sg9
F988863752268.0
ssS'FASTOW ANDREW S'
p178
(dp179
g3
F861842625000.0
sg4
I01
sg5
F0.10057358691295487
sg6
F1297049.0
sg7
F572907400000.0
sg8
F1794412.0
sg9
F344118546224.0
ssS'FOY JOE'
p180
(dp181
g3
F861842625000.0
sg4
I00
sg5
F0.0
sg6
F343434.0
sg7
F211264100000.0
sg8
F343434.0
sg9
F344118546224.0
ssS'CALGER CHRISTOPHER F'
p182
(dp183
g3
F861842625000.0
sg4
I01
sg5
F0.1736111111111111
sg6
F1297049.0
sg7
F300236250000.0
sg8
F126027.0
sg9
F344118546224.0
ssS'RICE KENNETH D'
p184
(dp185
g3
F34639806250000.0
sg4
I01
sg5
F0.2222222222222222
sg6
F19794175.0
sg7
F736113000000.0
sg8
F22542539.0
sg9
F8326142595300.0
ssS'KAMINSKI WINCENTY J'
p186
(dp187
g3
F340004000000.0
sg4
I00
sg5
F0.011901447661469933
sg6
F850010.0
sg7
F110040400000.0
sg8
F976037.0
sg9
F233838601010.0
ssS'LOCKHART EUGENE E'
p188
(dp189
g3
F861842625000.0
sg4
I00
sg5
F0.10057358691295487
sg6
F1297049.0
sg7
F211264100000.0
sg8
F1095040.0
sg9
F344118546224.0
ssS'COX DAVID'
p190
(dp191
g3
F94040800000.0
sg4
I00
sg5
F0.12121212121212122
sg6
F117551.0
sg7
F251430400000.0
sg8
F495633.0
sg9
F36944868688.0
ssS'OVERDYKE JR JERE C'
p192
(dp193
g3
F861842625000.0
sg4
I00
sg5
F0.10057358691295487
sg6
F5266578.0
sg7
F211264100000.0
sg8
F7307594.0
sg9
F500014181898.0
ssS'PEREIRA PAULO V. FERRAZ'
p194
(dp195
g3
F861842625000.0
sg4
I00
sg5
F0.10057358691295487
sg6
F1297049.0
sg7
F211264100000.0
sg8
F1095040.0
sg9
F344118546224.0
ssS'STABLER FRANK'
p196
(dp197
g3
F861842625000.0
sg4
I00
sg5
F0.10057358691295487
sg6
F1297049.0
sg7
F119751000000.0
sg8
F511734.0
sg9
F344118546224.0
ssS'SKILLING JEFFREY K'
p198
(dp199
g3
F107800000000000.0
sg4
I01
sg5
F0.2777777777777778
sg6
F19250000.0
sg7
F6223044800000.0
sg8
F26093672.0
sg9
F21391716500000.0
ssS'BLAKE JR. NORMAN P'
p200
(dp201
g3
F861842625000.0
sg4
I00
sg5
F0.10057358691295487
sg6
F1297049.0
sg7
F211264100000.0
sg8
F1095040.0
sg9
F344118546224.0
ssS'SHERRICK JEFFREY B'
p202
(dp203
g3
F861842625000.0
sg4
I00
sg5
F0.72
sg6
F1426469.0
sg7
F211264100000.0
sg8
F1832468.0
sg9
F344118546224.0
ssS'PRENTICE JAMES'
p204
(dp205
g3
F861842625000.0
sg4
I00
sg5
F0.10057358691295487
sg6
F886231.0
sg7
F211264100000.0
sg8
F1095040.0
sg9
F344118546224.0
ssS'GRAY RODNEY'
p206
(dp207
g3
F861842625000.0
sg4
I00
sg5
F0.10057358691295487
sg6
F1297049.0
sg7
F211264100000.0
sg8
F1095040.0
sg9
F344118546224.0
ssS'PICKERING MARK R'
p208
(dp209
g3
F8639400000.0
sg4
I00
sg5
F0.0
sg6
F28798.0
sg7
F196511100000.0
sg8
F28798.0
sg9
F18863755526.0
ssS'NOLES JAMES L'
p210
(dp211
g3
F861842625000.0
sg4
I00
sg5
F0.10057358691295487
sg6
F1297049.0
sg7
F211264100000.0
sg8
F368705.0
sg9
F344118546224.0
ssS'KEAN STEVEN J'
p212
(dp213
g3
F2022048000000.0
sg4
I00
sg5
F0.05725699067909454
sg6
F2022048.0
sg7
F404338000000.0
sg8
F6153642.0
sg9
F817590844224.0
ssS'FOWLER PEGGY'
p214
(dp215
g3
F861842625000.0
sg4
I00
sg5
F0.0
sg6
F1324578.0
sg7
F211264100000.0
sg8
F1884748.0
sg9
F344118546224.0
ssS'WASAFF GEORGE'
p216
(dp217
g3
F542184500000.0
sg4
I00
sg5
F0.23333333333333334
sg6
F1668260.0
sg7
F84498700000.0
sg8
F2056427.0
sg9
F433740926960.0
ssS'WHITE JR THOMAS E'
p218
(dp219
g3
F583672050000.0
sg4
I00
sg5
F0.10057358691295487
sg6
F1297049.0
sg7
F142894350000.0
sg8
F15144123.0
sg9
F411868830607.0
ssS'CHRISTODOULOU DIOMEDES'
p220
(dp221
g3
F861842625000.0
sg4
I00
sg5
F0.10057358691295487
sg6
F5127155.0
sg7
F211264100000.0
sg8
F6077885.0
sg9
F344118546224.0
ssS'ALLEN PHILLIP K'
p222
(dp223
g3
F7220833675000.0
sg4
I00
sg5
F0.029612756264236904
sg6
F1729541.0
sg7
F843162125000.0
sg8
F1729541.0
sg9
F349289452655.0
ssS'SHARP VICTORIA T'
p224
(dp225
g3
F168643800000.0
sg4
I00
sg5
F0.04411764705882353
sg6
F281073.0
sg7
F148887600000.0
sg8
F494136.0
sg9
F69747140658.0
ssS'JAEDICKE ROBERT'
p226
(dp227
g3
F861842625000.0
sg4
I00
sg5
F0.10057358691295487
sg6
F431750.0
sg7
F211264100000.0
sg8
F431750.0
sg9
F344118546224.0
ssS'WINOKUR JR. HERBERT S'
p228
(dp229
g3
F861842625000.0
sg4
I00
sg5
F0.10057358691295487
sg6
F1297049.0
sg7
F211264100000.0
sg8
F1095040.0
sg9
F344118546224.0
ssS'BROWN MICHAEL'
p230
(dp231
g3
F861842625000.0
sg4
I00
sg5
F0.024390243902439025
sg6
F1297049.0
sg7
F211264100000.0
sg8
F1095040.0
sg9
F344118546224.0
ssS'BADUM JAMES P'
p232
(dp233
g3
F861842625000.0
sg4
I00
sg5
F0.10057358691295487
sg6
F257817.0
sg7
F211264100000.0
sg8
F257817.0
sg9
F344118546224.0
ssS'HUGHES JAMES A'
p234
(dp235
g3
F861842625000.0
sg4
I00
sg5
F0.14705882352941177
sg6
F754966.0
sg7
F211264100000.0
sg8
F1118394.0
sg9
F344118546224.0
ssS'REYNOLDS LAWRENCE'
p236
(dp237
g3
F416067200000.0
sg4
I00
sg5
F0.10057358691295487
sg6
F4160672.0
sg7
F7639900000.0
sg8
F4221891.0
sg9
F317871180128.0
ssS'DIMICHELE RICHARD G'
p238
(dp239
g3
F8191755000000.0
sg4
I00
sg5
F0.10057358691295487
sg6
F8191755.0
sg7
F262788000000.0
sg8
F8317782.0
sg9
F2152694912940.0
ssS'BHATNAGAR SANJAY'
p240
(dp241
g3
F861842625000.0
sg4
I00
sg5
F0.034482758620689655
sg6
F2604490.0
sg7
F211264100000.0
sg8
F1095040.0
sg9
F344118546224.0
ssS'CARTER REBECCA C'
p242
(dp243
g3
F861842625000.0
sg4
I00
sg5
F0.4666666666666667
sg6
F1297049.0
sg7
F78542700000.0
sg8
F1095040.0
sg9
F344118546224.0
ssS'BUCHANAN HAROLD G'
p244
(dp245
g3
F412732000000.0
sg4
I00
sg5
F0.0
sg6
F825464.0
sg7
F124008500000.0
sg8
F1014505.0
sg9
F204729104888.0
ssS'YEAP SOON'
p246
(dp247
g3
F861842625000.0
sg4
I00
sg5
F0.10057358691295487
sg6
F192758.0
sg7
F211264100000.0
sg8
F192758.0
sg9
F344118546224.0
ssS'MURRAY JULIA H'
p248
(dp249
g3
F160191200000.0
sg4
I00
sg5
F0.044444444444444446
sg6
F400478.0
sg7
F91713600000.0
sg8
F597461.0
sg9
F91823197752.0
ssS'GARLAND C KEVIN'
p250
(dp251
g3
F540809100000.0
sg4
I00
sg5
F0.6136363636363636
sg6
F636246.0
sg7
F197154100000.0
sg8
F896153.0
sg9
F147574714716.0
ssS'DODSON KEITH'
p252
(dp253
g3
F861842625000.0
sg4
I00
sg5
F0.21428571428571427
sg6
F1297049.0
sg7
F15470210000.0
sg8
F1095040.0
sg9
F344118546224.0
ssS'YEAGER F SCOTT'
p254
(dp255
g3
F861842625000.0
sg4
I01
sg5
F0.10057358691295487
sg6
F8308552.0
sg7
F211264100000.0
sg8
F11884758.0
sg9
F1316099562456.0
ssS'HIRKO JOSEPH'
p256
(dp257
g3
F861842625000.0
sg4
I01
sg5
F0.10057358691295487
sg6
F30766064.0
sg7
F211264100000.0
sg8
F30766064.0
sg9
F344118546224.0
ssS'DIETRICH JANET R'
p258
(dp259
g3
F930011400000.0
sg4
I00
sg5
F0.2222222222222222
sg6
F1550019.0
sg7
F150060000000.0
sg8
F1865087.0
sg9
F387659751900.0
ssS'DERRICK JR. JAMES V'
p260
(dp261
g3
F7065530400000.0
sg4
I00
sg5
F0.022002200220022004
sg6
F8831913.0
sg7
F393900000000.0
sg8
F8831913.0
sg9
F4348613163375.0
ssS'FREVERT MARK A'
p262
(dp263
g3
F20867036000000.0
sg4
I00
sg5
F0.2857142857142857
sg6
F10433518.0
sg7
F2121864000000.0
sg8
F14622185.0
sg9
F11069253118776.0
ssS'PAI LOU L'
p264
(dp265
g3
F15364167000000.0
sg4
I00
sg5
F0.10057358691295487
sg6
F15364167.0
sg7
F261879000000.0
sg8
F23817930.0
sg9
F4023552689793.0
ssS'BAY FRANKLIN R'
p266
(dp267
g3
F861842625000.0
sg4
I00
sg5
F0.10057358691295487
sg6
F1297049.0
sg7
F95868400000.0
sg8
F63014.0
sg9
F344118546224.0
ssS'HAYSLETT RODERICK J'
p268
(dp269
g3
F861842625000.0
sg4
I00
sg5
F0.03581526861451461
sg6
F1297049.0
sg7
F211264100000.0
sg8
F346663.0
sg9
F344118546224.0
ssS'FUGH JOHN L'
p270
(dp271
g3
F861842625000.0
sg4
I00
sg5
F0.10057358691295487
sg6
F176378.0
sg7
F211264100000.0
sg8
F176378.0
sg9
F344118546224.0
ssS'FALLON JAMES B'
p272
(dp273
g3
F2350642500000.0
sg4
I00
sg5
F0.49333333333333335
sg6
F940257.0
sg7
F761470000000.0
sg8
F2332399.0
sg9
F286390999116.0
ssS'KOENIG MARK E'
p274
(dp275
g3
F470215900000.0
sg4
I01
sg5
F0.2459016393442623
sg6
F671737.0
sg7
F216962200000.0
sg8
F1920055.0
sg9
F208202196202.0
ssS'SAVAGE FRANK'
p276
(dp277
g3
F861842625000.0
sg4
I00
sg5
F0.10057358691295487
sg6
F1297049.0
sg7
F211264100000.0
sg8
F1095040.0
sg9
F344118546224.0
ssS'IZZO LAWRENCE L'
p278
(dp279
g3
F861842625000.0
sg4
I00
sg5
F0.2631578947368421
sg6
F2165172.0
sg7
F211264100000.0
sg8
F5819980.0
sg9
F184632877128.0
ssS'TILNEY ELIZABETH A'
p280
(dp281
g3
F177375000000.0
sg4
I00
sg5
F0.5789473684210527
sg6
F591250.0
sg7
F74201400000.0
sg8
F1168042.0
sg9
F146238592500.0
ssS'MARTIN AMANDA K'
p282
(dp283
g3
F861842625000.0
sg4
I00
sg5
F0.0
sg6
F2070306.0
sg7
F211264100000.0
sg8
F2070306.0
sg9
F723545033022.0
ssS'BUY RICHARD B'
p284
(dp285
g3
F2288531700000.0
sg4
I00
sg5
F0.06742640075973409
sg6
F2542813.0
sg7
F297491400000.0
sg8
F3444470.0
sg9
F840516665898.0
ssS'GRAMM WENDY L'
p286
(dp287
g3
F861842625000.0
sg4
I00
sg5
F0.10057358691295487
sg6
F1297049.0
sg7
F211264100000.0
sg8
F1095040.0
sg9
F344118546224.0
ssS'CAUSEY RICHARD A'
p288
(dp289
g3
F861842625000.0
sg4
I01
sg5
F0.24489795918367346
sg6
F1297049.0
sg7
F415189000000.0
sg8
F2502063.0
sg9
F344118546224.0
ssS'TAYLOR MITCHELL S'
p290
(dp291
g3
F1908750000000.0
sg4
I00
sg5
F0.0
sg6
F3181250.0
sg7
F159128400000.0
sg8
F3745048.0
sg9
F843712037500.0
ssS'DONAHUE JR JEFFREY M'
p292
(dp293
g3
F612736000000.0
sg4
I00
sg5
F0.5
sg6
F765920.0
sg7
F222880800000.0
sg8
F1080988.0
sg9
F213386077920.0
ssS'GLISAN JR BEN F'
p294
(dp295
g3
F230836800000.0
sg4
I01
sg5
F0.375
sg6
F384728.0
sg7
F164985000000.0
sg8
F778546.0
sg9
F105790581800.0
ss.