(lp0
S'poi'
p1
aS'salary'
p2
aS'exercised_stock_options'
p3
aS'bonus'
p4
aS'total_stock_value'
p5
aS'from_ratio'
p6
aS'stock_salary'
p7
aS'bonus_salary'
p8
aS'bonus_stock'
p9
aS'from_poi_to_this_person'
p10
a.